target datalayout = "e-m:e-p270:32:32-p271:32:32-p272:64:64-i64:64-i128:128-f80:128-n8:16:32:64-S128"
target triple = "x86_64-pc-linux-gnu"

%class.b3ConvexHullInternal = type { %class.b3Vector3, %class.b3Vector3, %"class.b3ConvexHullInternal::Pool", %"class.b3ConvexHullInternal::Pool.0", %"class.b3ConvexHullInternal::Pool.2", %class.b3AlignedObjectArray, i32, i32, i32, i32, i32, i32, ptr }
%class.b3Vector3 = type { %union.anon }
%union.anon = type { [4 x float] }
%"class.b3ConvexHullInternal::Pool" = type <{ ptr, ptr, ptr, i32, [4 x i8] }>
%"class.b3ConvexHullInternal::Pool.0" = type <{ ptr, ptr, ptr, i32, [4 x i8] }>
%"class.b3ConvexHullInternal::Pool.2" = type <{ ptr, ptr, ptr, i32, [4 x i8] }>
%class.b3AlignedObjectArray = type <{ [4 x i8], i32, i32, [4 x i8], ptr, i8, [7 x i8] }>
%"class.b3ConvexHullInternal::Point32" = type { i32, i32, i32, i32 }

; Function Attrs: inlinehint mustprogress nounwind uwtable
define linkonce_odr dso_local void @_ZN9b3Vector38setValueERKfS1_S1_(ptr noundef nonnull align 16 dereferenceable(16) %0, ptr noundef nonnull align 4 dereferenceable(4) %1, ptr noundef nonnull align 4 dereferenceable(4) %2, ptr noundef nonnull align 4 dereferenceable(4) %3) #4 comdat align 2 {
  %5 = alloca ptr, align 8
  %6 = alloca ptr, align 8
  %7 = alloca ptr, align 8
  %8 = alloca ptr, align 8
  store ptr %0, ptr %5, align 8, !tbaa !151
  store ptr %1, ptr %6, align 8, !tbaa !136
  store ptr %2, ptr %7, align 8, !tbaa !136
  store ptr %3, ptr %8, align 8, !tbaa !136
  %9 = load ptr, ptr %5, align 8
  %10 = load ptr, ptr %6, align 8, !tbaa !136
  %11 = load float, ptr %10, align 4, !tbaa !138
  %12 = getelementptr inbounds nuw %class.b3Vector3, ptr %9, i32 0, i32 0
  %13 = getelementptr inbounds [4 x float], ptr %12, i64 0, i64 0
  store float %11, ptr %13, align 16, !tbaa !145
  %14 = load ptr, ptr %7, align 8, !tbaa !136
  %15 = load float, ptr %14, align 4, !tbaa !138
  %16 = getelementptr inbounds nuw %class.b3Vector3, ptr %9, i32 0, i32 0
  %17 = getelementptr inbounds [4 x float], ptr %16, i64 0, i64 1
  store float %15, ptr %17, align 4, !tbaa !145
  %18 = load ptr, ptr %8, align 8, !tbaa !136
  %19 = load float, ptr %18, align 4, !tbaa !138
  %20 = getelementptr inbounds nuw %class.b3Vector3, ptr %9, i32 0, i32 0
  %21 = getelementptr inbounds [4 x float], ptr %20, i64 0, i64 2
  store float %19, ptr %21, align 8, !tbaa !145
  %22 = getelementptr inbounds nuw %class.b3Vector3, ptr %9, i32 0, i32 0
  %23 = getelementptr inbounds [4 x float], ptr %22, i64 0, i64 3
  store float 0.000000e+00, ptr %23, align 4, !tbaa !145
  ret void
}

; Function Attrs: inlinehint mustprogress uwtable
define linkonce_odr dso_local { <2 x float>, <2 x float> } @_Z13b3MakeVector3fff(float noundef %0, float noundef %1, float noundef %2) #6 comdat {
  %4 = alloca %class.b3Vector3, align 16
  %5 = alloca float, align 4
  %6 = alloca float, align 4
  %7 = alloca float, align 4
  store float %0, ptr %5, align 4, !tbaa !138
  store float %1, ptr %6, align 4, !tbaa !138
  store float %2, ptr %7, align 4, !tbaa !138
  call void @_ZN9b3Vector38setValueERKfS1_S1_(ptr noundef nonnull align 16 dereferenceable(16) %4, ptr noundef nonnull align 4 dereferenceable(4) %5, ptr noundef nonnull align 4 dereferenceable(4) %6, ptr noundef nonnull align 4 dereferenceable(4) %7)
  %8 = getelementptr inbounds nuw %class.b3Vector3, ptr %4, i32 0, i32 0
  %9 = getelementptr inbounds nuw %union.anon, ptr %8, i32 0, i32 0
  %10 = load { <2 x float>, <2 x float> }, ptr %9, align 16
  ret { <2 x float>, <2 x float> } %10
}

; Function Attrs: inlinehint mustprogress uwtable
define linkonce_odr dso_local { <2 x float>, <2 x float> } @_ZmlRK9b3Vector3S1_(ptr noundef nonnull align 16 dereferenceable(16) %0, ptr noundef nonnull align 16 dereferenceable(16) %1) #7 comdat {
  %3 = alloca %class.b3Vector3, align 16
  %4 = alloca ptr, align 8
  %5 = alloca ptr, align 8
  store ptr %0, ptr %4, align 8, !tbaa !151
  store ptr %1, ptr %5, align 8, !tbaa !151
  %6 = load ptr, ptr %4, align 8, !tbaa !151
  %7 = getelementptr inbounds nuw %class.b3Vector3, ptr %6, i32 0, i32 0
  %8 = getelementptr inbounds [4 x float], ptr %7, i64 0, i64 0
  %9 = load float, ptr %8, align 16, !tbaa !145
  %10 = load ptr, ptr %5, align 8, !tbaa !151
  %11 = getelementptr inbounds nuw %class.b3Vector3, ptr %10, i32 0, i32 0
  %12 = getelementptr inbounds [4 x float], ptr %11, i64 0, i64 0
  %13 = load float, ptr %12, align 16, !tbaa !145
  %14 = fmul float %9, %13
  %15 = load ptr, ptr %4, align 8, !tbaa !151
  %16 = getelementptr inbounds nuw %class.b3Vector3, ptr %15, i32 0, i32 0
  %17 = getelementptr inbounds [4 x float], ptr %16, i64 0, i64 1
  %18 = load float, ptr %17, align 4, !tbaa !145
  %19 = load ptr, ptr %5, align 8, !tbaa !151
  %20 = getelementptr inbounds nuw %class.b3Vector3, ptr %19, i32 0, i32 0
  %21 = getelementptr inbounds [4 x float], ptr %20, i64 0, i64 1
  %22 = load float, ptr %21, align 4, !tbaa !145
  %23 = fmul float %18, %22
  %24 = load ptr, ptr %4, align 8, !tbaa !151
  %25 = getelementptr inbounds nuw %class.b3Vector3, ptr %24, i32 0, i32 0
  %26 = getelementptr inbounds [4 x float], ptr %25, i64 0, i64 2
  %27 = load float, ptr %26, align 8, !tbaa !145
  %28 = load ptr, ptr %5, align 8, !tbaa !151
  %29 = getelementptr inbounds nuw %class.b3Vector3, ptr %28, i32 0, i32 0
  %30 = getelementptr inbounds [4 x float], ptr %29, i64 0, i64 2
  %31 = load float, ptr %30, align 8, !tbaa !145
  %32 = fmul float %27, %31
  %33 = call { <2 x float>, <2 x float> } @_Z13b3MakeVector3fff(float noundef %14, float noundef %23, float noundef %32)
  %34 = getelementptr inbounds nuw %class.b3Vector3, ptr %3, i32 0, i32 0
  %35 = getelementptr inbounds nuw %union.anon, ptr %34, i32 0, i32 0
  %36 = getelementptr inbounds nuw { <2 x float>, <2 x float> }, ptr %35, i32 0, i32 0
  %37 = extractvalue { <2 x float>, <2 x float> } %33, 0
  store <2 x float> %37, ptr %36, align 16
  %38 = getelementptr inbounds nuw { <2 x float>, <2 x float> }, ptr %35, i32 0, i32 1
  %39 = extractvalue { <2 x float>, <2 x float> } %33, 1
  store <2 x float> %39, ptr %38, align 8
  %40 = getelementptr inbounds nuw %class.b3Vector3, ptr %3, i32 0, i32 0
  %41 = getelementptr inbounds nuw %union.anon, ptr %40, i32 0, i32 0
  %42 = load { <2 x float>, <2 x float> }, ptr %41, align 16
  ret { <2 x float>, <2 x float> } %42
}

; Function Attrs: inlinehint mustprogress nounwind uwtable
define linkonce_odr dso_local noundef ptr @_ZN9b3Vector3cvPfEv(ptr noundef nonnull align 16 dereferenceable(16) %0) #4 comdat align 2 {
  %2 = alloca ptr, align 8
  store ptr %0, ptr %2, align 8, !tbaa !151
  %3 = load ptr, ptr %2, align 8
  %4 = getelementptr inbounds nuw %class.b3Vector3, ptr %3, i32 0, i32 0
  %5 = getelementptr inbounds [4 x float], ptr %4, i64 0, i64 0
  ret ptr %5
}

; Function Attrs: mustprogress uwtable
define dso_local { <2 x float>, <2 x float> } @_ZN20b3ConvexHullInternal10toBtVectorERKNS_7Point32E(ptr noundef nonnull align 16 dereferenceable(192) %0, ptr noundef nonnull align 4 dereferenceable(16) %1) #5 align 2 {
  %3 = alloca %class.b3Vector3, align 16
  %4 = alloca ptr, align 8
  %5 = alloca ptr, align 8
  %6 = alloca %class.b3Vector3, align 16
  store ptr %0, ptr %4, align 8, !tbaa !35
  store ptr %1, ptr %5, align 8, !tbaa !99
  %7 = load ptr, ptr %4, align 8
  call void @llvm.lifetime.start.p0(i64 16, ptr %6) #13
  %8 = load ptr, ptr %5, align 8, !tbaa !99
  %9 = getelementptr inbounds nuw %"class.b3ConvexHullInternal::Point32", ptr %8, i32 0, i32 0
  %10 = load i32, ptr %9, align 4, !tbaa !101
  %11 = sitofp i32 %10 to float
  %12 = call noundef ptr @_ZN9b3Vector3cvPfEv(ptr noundef nonnull align 16 dereferenceable(16) %6)
  %13 = getelementptr inbounds nuw %class.b3ConvexHullInternal, ptr %7, i32 0, i32 8
  %14 = load i32, ptr %13, align 8, !tbaa !143
  %15 = sext i32 %14 to i64
  %16 = getelementptr inbounds float, ptr %12, i64 %15
  store float %11, ptr %16, align 4, !tbaa !138
  %17 = load ptr, ptr %5, align 8, !tbaa !99
  %18 = getelementptr inbounds nuw %"class.b3ConvexHullInternal::Point32", ptr %17, i32 0, i32 1
  %19 = load i32, ptr %18, align 4, !tbaa !102
  %20 = sitofp i32 %19 to float
  %21 = call noundef ptr @_ZN9b3Vector3cvPfEv(ptr noundef nonnull align 16 dereferenceable(16) %6)
  %22 = getelementptr inbounds nuw %class.b3ConvexHullInternal, ptr %7, i32 0, i32 9
  %23 = load i32, ptr %22, align 4, !tbaa !141
  %24 = sext i32 %23 to i64
  %25 = getelementptr inbounds float, ptr %21, i64 %24
  store float %20, ptr %25, align 4, !tbaa !138
  %26 = load ptr, ptr %5, align 8, !tbaa !99
  %27 = getelementptr inbounds nuw %"class.b3ConvexHullInternal::Point32", ptr %26, i32 0, i32 2
  %28 = load i32, ptr %27, align 4, !tbaa !103
  %29 = sitofp i32 %28 to float
  %30 = call noundef ptr @_ZN9b3Vector3cvPfEv(ptr noundef nonnull align 16 dereferenceable(16) %6)
  %31 = getelementptr inbounds nuw %class.b3ConvexHullInternal, ptr %7, i32 0, i32 7
  %32 = load i32, ptr %31, align 4, !tbaa !142
  %33 = sext i32 %32 to i64
  %34 = getelementptr inbounds float, ptr %30, i64 %33
  store float %29, ptr %34, align 4, !tbaa !138
  %35 = getelementptr inbounds nuw %class.b3ConvexHullInternal, ptr %7, i32 0, i32 0
  %36 = call { <2 x float>, <2 x float> } @_ZmlRK9b3Vector3S1_(ptr noundef nonnull align 16 dereferenceable(16) %6, ptr noundef nonnull align 16 dereferenceable(16) %35)
  %37 = getelementptr inbounds nuw %class.b3Vector3, ptr %3, i32 0, i32 0
  %38 = getelementptr inbounds nuw %union.anon, ptr %37, i32 0, i32 0
  %39 = getelementptr inbounds nuw { <2 x float>, <2 x float> }, ptr %38, i32 0, i32 0
  %40 = extractvalue { <2 x float>, <2 x float> } %36, 0
  store <2 x float> %40, ptr %39, align 16
  %41 = getelementptr inbounds nuw { <2 x float>, <2 x float> }, ptr %38, i32 0, i32 1
  %42 = extractvalue { <2 x float>, <2 x float> } %36, 1
  store <2 x float> %42, ptr %41, align 8
  call void @llvm.lifetime.end.p0(i64 16, ptr %6) #13
  %43 = getelementptr inbounds nuw %class.b3Vector3, ptr %3, i32 0, i32 0
  %44 = getelementptr inbounds nuw %union.anon, ptr %43, i32 0, i32 0
  %45 = load { <2 x float>, <2 x float> }, ptr %44, align 16
  ret { <2 x float>, <2 x float> } %45
}