; Function Attrs: mustprogress nofree norecurse nosync nounwind willreturn memory(argmem: read) uwtable
define dso_local { <2 x float>, <2 x float> } @_ZN20b3ConvexHullInternal10toBtVectorERKNS_7Point32E(ptr noundef nonnull readonly align 16 captures(none) dereferenceable(192) %0, ptr noundef nonnull readonly align 4 captures(none) dereferenceable(16) %1) local_unnamed_addr #10 align 2 {
  %3 = alloca %class.b3Vector3, align 16
  call void @llvm.lifetime.start.p0(i64 16, ptr nonnull %3) #19
  %4 = load i32, ptr %1, align 4, !tbaa !77
  %5 = sitofp i32 %4 to float
  %6 = getelementptr inbounds nuw i8, ptr %0, i64 168
  %7 = load i32, ptr %6, align 8, !tbaa !116
  %8 = sext i32 %7 to i64
  %9 = getelementptr inbounds float, ptr %3, i64 %8
  store float %5, ptr %9, align 4, !tbaa !111
  %10 = getelementptr inbounds nuw i8, ptr %1, i64 4
  %11 = load i32, ptr %10, align 4, !tbaa !78
  %12 = sitofp i32 %11 to float
  %13 = getelementptr inbounds nuw i8, ptr %0, i64 172
  %14 = load i32, ptr %13, align 4, !tbaa !114
  %15 = sext i32 %14 to i64
  %16 = getelementptr inbounds float, ptr %3, i64 %15
  store float %12, ptr %16, align 4, !tbaa !111
  %17 = getelementptr inbounds nuw i8, ptr %1, i64 8
  %18 = load i32, ptr %17, align 4, !tbaa !79
  %19 = sitofp i32 %18 to float
  %20 = getelementptr inbounds nuw i8, ptr %0, i64 164
  %21 = load i32, ptr %20, align 4, !tbaa !115
  %22 = sext i32 %21 to i64
  %23 = getelementptr inbounds float, ptr %3, i64 %22
  store float %19, ptr %23, align 4, !tbaa !111
  %24 = load float, ptr %3, align 16, !tbaa !117
  %25 = load float, ptr %0, align 16, !tbaa !117
  %26 = fmul float %24, %25
  %27 = getelementptr inbounds nuw i8, ptr %3, i64 4
  %28 = load float, ptr %27, align 4, !tbaa !117
  %29 = getelementptr inbounds nuw i8, ptr %0, i64 4
  %30 = load float, ptr %29, align 4, !tbaa !117
  %31 = fmul float %28, %30
  %32 = getelementptr inbounds nuw i8, ptr %3, i64 8
  %33 = load float, ptr %32, align 8, !tbaa !117
  %34 = getelementptr inbounds nuw i8, ptr %0, i64 8
  %35 = load float, ptr %34, align 8, !tbaa !117
  %36 = fmul float %33, %35
  %.sroa.0.0.vec.insert.i.i = insertelement <2 x float> poison, float %26, i64 0
  %.sroa.0.4.vec.insert.i.i = insertelement <2 x float> %.sroa.0.0.vec.insert.i.i, float %31, i64 1
  %.sroa.3.12.vec.insert.i.i = insertelement <2 x float> <float poison, float 0.000000e+00>, float %36, i64 0
  %.fca.0.insert.i.i = insertvalue { <2 x float>, <2 x float> } poison, <2 x float> %.sroa.0.4.vec.insert.i.i, 0
  %.fca.1.insert.i.i = insertvalue { <2 x float>, <2 x float> } %.fca.0.insert.i.i, <2 x float> %.sroa.3.12.vec.insert.i.i, 1
  call void @llvm.lifetime.end.p0(i64 16, ptr nonnull %3) #19
  ret { <2 x float>, <2 x float> } %.fca.1.insert.i.i
}